target datalayout = "e-m:e-p270:32:32-p271:32:32-p272:64:64-i64:64-i128:128-f80:128-n8:16:32:64-S128"
target triple = "x86_64-pc-linux-gnu"

%struct.Node = type { i32 }
%struct.Plan = type { i32, i32, double, double, double, i32, i8, i8, i8, i32, ptr, ptr, ptr, ptr, ptr, ptr, ptr }
%struct.Path = type { i32, i32, ptr, ptr, ptr, i8, i8, i32, double, i32, double, double, ptr }
%struct.CustomPath = type { %struct.Path, i32, ptr, ptr, ptr, ptr }
%struct.AppendPath = type { %struct.Path, ptr, i32, double }
%struct.QualCost = type { double, double }
%struct.ProjectionPath = type { %struct.Path, ptr, i8 }
%struct.PathTarget = type { i32, ptr, ptr, %struct.QualCost, i32, i32 }
%struct.Result = type { %struct.Plan, ptr }

; Function Attrs: inlinehint nounwind uwtable
define internal ptr @newNode(i64 noundef %0, i32 noundef %1) #4 {
  %3 = alloca i64, align 8
  %4 = alloca i32, align 4
  %5 = alloca ptr, align 8
  store i64 %0, ptr %3, align 8
  store i32 %1, ptr %4, align 4
  call void @llvm.lifetime.start.p0(i64 8, ptr %5) #10
  %6 = load i64, ptr %3, align 8
  %7 = call ptr @palloc0(i64 noundef %6)
  store ptr %7, ptr %5, align 8
  %8 = load i32, ptr %4, align 4
  %9 = load ptr, ptr %5, align 8
  %10 = getelementptr inbounds nuw %struct.Node, ptr %9, i32 0, i32 0
  store i32 %8, ptr %10, align 4
  %11 = load ptr, ptr %5, align 8
  call void @llvm.lifetime.end.p0(i64 8, ptr %5) #10
  ret ptr %11
}

; Function Attrs: nounwind uwtable
define internal void @copy_generic_path_info(ptr noundef %0, ptr noundef %1) #0 {
  %3 = alloca ptr, align 8
  %4 = alloca ptr, align 8
  store ptr %0, ptr %3, align 8
  store ptr %1, ptr %4, align 8
  %5 = load ptr, ptr %4, align 8
  %6 = getelementptr inbounds nuw %struct.Path, ptr %5, i32 0, i32 9
  %7 = load i32, ptr %6, align 8
  %8 = load ptr, ptr %3, align 8
  %9 = getelementptr inbounds nuw %struct.Plan, ptr %8, i32 0, i32 1
  store i32 %7, ptr %9, align 4
  %10 = load ptr, ptr %4, align 8
  %11 = getelementptr inbounds nuw %struct.Path, ptr %10, i32 0, i32 10
  %12 = load double, ptr %11, align 8
  %13 = load ptr, ptr %3, align 8
  %14 = getelementptr inbounds nuw %struct.Plan, ptr %13, i32 0, i32 2
  store double %12, ptr %14, align 8
  %15 = load ptr, ptr %4, align 8
  %16 = getelementptr inbounds nuw %struct.Path, ptr %15, i32 0, i32 11
  %17 = load double, ptr %16, align 8
  %18 = load ptr, ptr %3, align 8
  %19 = getelementptr inbounds nuw %struct.Plan, ptr %18, i32 0, i32 3
  store double %17, ptr %19, align 8
  %20 = load ptr, ptr %4, align 8
  %21 = getelementptr inbounds nuw %struct.Path, ptr %20, i32 0, i32 8
  %22 = load double, ptr %21, align 8
  %23 = load ptr, ptr %3, align 8
  %24 = getelementptr inbounds nuw %struct.Plan, ptr %23, i32 0, i32 4
  store double %22, ptr %24, align 8
  %25 = load ptr, ptr %4, align 8
  %26 = getelementptr inbounds nuw %struct.Path, ptr %25, i32 0, i32 3
  %27 = load ptr, ptr %26, align 8
  %28 = getelementptr inbounds nuw %struct.PathTarget, ptr %27, i32 0, i32 4
  %29 = load i32, ptr %28, align 8
  %30 = load ptr, ptr %3, align 8
  %31 = getelementptr inbounds nuw %struct.Plan, ptr %30, i32 0, i32 5
  store i32 %29, ptr %31, align 8
  %32 = load ptr, ptr %4, align 8
  %33 = getelementptr inbounds nuw %struct.Path, ptr %32, i32 0, i32 5
  %34 = load i8, ptr %33, align 8, !range !4, !noundef !5
  %35 = trunc i8 %34 to i1
  %36 = load ptr, ptr %3, align 8
  %37 = getelementptr inbounds nuw %struct.Plan, ptr %36, i32 0, i32 6
  %38 = zext i1 %35 to i8
  store i8 %38, ptr %37, align 4
  %39 = load ptr, ptr %4, align 8
  %40 = getelementptr inbounds nuw %struct.Path, ptr %39, i32 0, i32 6
  %41 = load i8, ptr %40, align 1, !range !4, !noundef !5
  %42 = trunc i8 %41 to i1
  %43 = load ptr, ptr %3, align 8
  %44 = getelementptr inbounds nuw %struct.Plan, ptr %43, i32 0, i32 7
  %45 = zext i1 %42 to i8
  store i8 %45, ptr %44, align 1
  ret void
}

; Function Attrs: nounwind uwtable
define internal ptr @make_result(ptr noundef %0, ptr noundef %1, ptr noundef %2) #0 {
  %4 = alloca ptr, align 8
  %5 = alloca ptr, align 8
  %6 = alloca ptr, align 8
  %7 = alloca ptr, align 8
  %8 = alloca ptr, align 8
  store ptr %0, ptr %4, align 8
  store ptr %1, ptr %5, align 8
  store ptr %2, ptr %6, align 8
  call void @llvm.lifetime.start.p0(i64 8, ptr %7) #10
  %9 = call ptr @newNode(i64 noundef 112, i32 noundef 330)
  store ptr %9, ptr %7, align 8
  call void @llvm.lifetime.start.p0(i64 8, ptr %8) #10
  %10 = load ptr, ptr %7, align 8
  %11 = getelementptr inbounds nuw %struct.Result, ptr %10, i32 0, i32 0
  store ptr %11, ptr %8, align 8
  %12 = load ptr, ptr %4, align 8
  %13 = load ptr, ptr %8, align 8
  %14 = getelementptr inbounds nuw %struct.Plan, ptr %13, i32 0, i32 10
  store ptr %12, ptr %14, align 8
  %15 = load ptr, ptr %8, align 8
  %16 = getelementptr inbounds nuw %struct.Plan, ptr %15, i32 0, i32 11
  store ptr null, ptr %16, align 8
  %17 = load ptr, ptr %6, align 8
  %18 = load ptr, ptr %8, align 8
  %19 = getelementptr inbounds nuw %struct.Plan, ptr %18, i32 0, i32 12
  store ptr %17, ptr %19, align 8
  %20 = load ptr, ptr %8, align 8
  %21 = getelementptr inbounds nuw %struct.Plan, ptr %20, i32 0, i32 13
  store ptr null, ptr %21, align 8
  %22 = load ptr, ptr %5, align 8
  %23 = load ptr, ptr %7, align 8
  %24 = getelementptr inbounds nuw %struct.Result, ptr %23, i32 0, i32 1
  store ptr %22, ptr %24, align 8
  %25 = load ptr, ptr %7, align 8
  call void @llvm.lifetime.end.p0(i64 8, ptr %8) #10
  call void @llvm.lifetime.end.p0(i64 8, ptr %7) #10
  ret ptr %25
}

; Function Attrs: nounwind uwtable
define dso_local zeroext i1 @is_projection_capable_path(ptr noundef %0) #0 {
  %2 = alloca i1, align 1
  %3 = alloca ptr, align 8
  store ptr %0, ptr %3, align 8
  %4 = load ptr, ptr %3, align 8
  %5 = getelementptr inbounds nuw %struct.Path, ptr %4, i32 0, i32 1
  %6 = load i32, ptr %5, align 4
  switch i32 %6, label %29 [
    i32 369, label %7
    i32 359, label %7
    i32 360, label %7
    i32 361, label %7
    i32 362, label %7
    i32 366, label %7
    i32 370, label %7
    i32 371, label %7
    i32 372, label %7
    i32 332, label %7
    i32 334, label %7
    i32 335, label %7
    i32 354, label %8
    i32 333, label %16
    i32 331, label %28
  ]

7:                                                ; preds = %1, %1, %1, %1, %1, %1, %1, %1, %1, %1, %1, %1
  store i1 false, ptr %2, align 1
  br label %31

8:                                                ; preds = %1
  %9 = load ptr, ptr %3, align 8
  %10 = getelementptr inbounds nuw %struct.CustomPath, ptr %9, i32 0, i32 1
  %11 = load i32, ptr %10, align 8
  %12 = and i32 %11, 4
  %13 = icmp ne i32 %12, 0
  br i1 %13, label %14, label %15

14:                                               ; preds = %8
  store i1 true, ptr %2, align 1
  br label %31

15:                                               ; preds = %8
  store i1 false, ptr %2, align 1
  br label %31

16:                                               ; preds = %1
  %17 = load ptr, ptr %3, align 8
  %18 = getelementptr inbounds nuw %struct.Node, ptr %17, i32 0, i32 0
  %19 = load i32, ptr %18, align 4
  %20 = icmp eq i32 %19, 289
  br i1 %20, label %21, label %26

21:                                               ; preds = %16
  %22 = load ptr, ptr %3, align 8
  %23 = getelementptr inbounds nuw %struct.AppendPath, ptr %22, i32 0, i32 1
  %24 = load ptr, ptr %23, align 8
  %25 = icmp eq ptr %24, null
  br label %26

26:                                               ; preds = %21, %16
  %27 = phi i1 [ false, %16 ], [ %25, %21 ]
  store i1 %27, ptr %2, align 1
  br label %31

28:                                               ; preds = %1
  store i1 false, ptr %2, align 1
  br label %31

29:                                               ; preds = %1
  br label %30

30:                                               ; preds = %29
  store i1 true, ptr %2, align 1
  br label %31

31:                                               ; preds = %30, %28, %26, %15, %14, %7
  %32 = load i1, ptr %2, align 1
  ret i1 %32
}

; Function Attrs: nounwind uwtable
define internal ptr @create_projection_plan(ptr noundef %0, ptr noundef %1, i32 noundef %2) #0 {
  %4 = alloca ptr, align 8
  %5 = alloca ptr, align 8
  %6 = alloca i32, align 4
  %7 = alloca ptr, align 8
  %8 = alloca ptr, align 8
  %9 = alloca ptr, align 8
  %10 = alloca i8, align 1
  store ptr %0, ptr %4, align 8
  store ptr %1, ptr %5, align 8
  store i32 %2, ptr %6, align 4
  call void @llvm.lifetime.start.p0(i64 8, ptr %7) #10
  call void @llvm.lifetime.start.p0(i64 8, ptr %8) #10
  call void @llvm.lifetime.start.p0(i64 8, ptr %9) #10
  call void @llvm.lifetime.start.p0(i64 1, ptr %10) #10
  store i8 0, ptr %10, align 1
  %11 = load ptr, ptr %4, align 8
  %12 = load ptr, ptr %5, align 8
  %13 = getelementptr inbounds nuw %struct.ProjectionPath, ptr %12, i32 0, i32 0
  %14 = load i32, ptr %6, align 4
  %15 = call zeroext i1 @use_physical_tlist(ptr noundef %11, ptr noundef %13, i32 noundef %14)
  br i1 %15, label %16, label %35

16:                                               ; preds = %3
  %17 = load ptr, ptr %4, align 8
  %18 = load ptr, ptr %5, align 8
  %19 = getelementptr inbounds nuw %struct.ProjectionPath, ptr %18, i32 0, i32 1
  %20 = load ptr, ptr %19, align 8
  %21 = call ptr @create_plan_recurse(ptr noundef %17, ptr noundef %20, i32 noundef 0)
  store ptr %21, ptr %8, align 8
  %22 = load ptr, ptr %8, align 8
  %23 = getelementptr inbounds nuw %struct.Plan, ptr %22, i32 0, i32 10
  %24 = load ptr, ptr %23, align 8
  store ptr %24, ptr %9, align 8
  %25 = load i32, ptr %6, align 4
  %26 = and i32 %25, 4
  %27 = icmp ne i32 %26, 0
  br i1 %27, label %28, label %34

28:                                               ; preds = %16
  %29 = load ptr, ptr %9, align 8
  %30 = load ptr, ptr %5, align 8
  %31 = getelementptr inbounds nuw %struct.ProjectionPath, ptr %30, i32 0, i32 0
  %32 = getelementptr inbounds nuw %struct.Path, ptr %31, i32 0, i32 3
  %33 = load ptr, ptr %32, align 8
  call void @apply_pathtarget_labeling_to_tlist(ptr noundef %29, ptr noundef %33)
  br label %34

34:                                               ; preds = %28, %16
  br label %68

35:                                               ; preds = %3
  %36 = load ptr, ptr %5, align 8
  %37 = getelementptr inbounds nuw %struct.ProjectionPath, ptr %36, i32 0, i32 1
  %38 = load ptr, ptr %37, align 8
  %39 = call zeroext i1 @is_projection_capable_path(ptr noundef %38)
  br i1 %39, label %40, label %50

40:                                               ; preds = %35
  %41 = load ptr, ptr %4, align 8
  %42 = load ptr, ptr %5, align 8
  %43 = getelementptr inbounds nuw %struct.ProjectionPath, ptr %42, i32 0, i32 1
  %44 = load ptr, ptr %43, align 8
  %45 = call ptr @create_plan_recurse(ptr noundef %41, ptr noundef %44, i32 noundef 8)
  store ptr %45, ptr %8, align 8
  %46 = load ptr, ptr %4, align 8
  %47 = load ptr, ptr %5, align 8
  %48 = getelementptr inbounds nuw %struct.ProjectionPath, ptr %47, i32 0, i32 0
  %49 = call ptr @build_path_tlist(ptr noundef %46, ptr noundef %48)
  store ptr %49, ptr %9, align 8
  br label %67

50:                                               ; preds = %35
  %51 = load ptr, ptr %4, align 8
  %52 = load ptr, ptr %5, align 8
  %53 = getelementptr inbounds nuw %struct.ProjectionPath, ptr %52, i32 0, i32 1
  %54 = load ptr, ptr %53, align 8
  %55 = call ptr @create_plan_recurse(ptr noundef %51, ptr noundef %54, i32 noundef 0)
  store ptr %55, ptr %8, align 8
  %56 = load ptr, ptr %4, align 8
  %57 = load ptr, ptr %5, align 8
  %58 = getelementptr inbounds nuw %struct.ProjectionPath, ptr %57, i32 0, i32 0
  %59 = call ptr @build_path_tlist(ptr noundef %56, ptr noundef %58)
  store ptr %59, ptr %9, align 8
  %60 = load ptr, ptr %9, align 8
  %61 = load ptr, ptr %8, align 8
  %62 = getelementptr inbounds nuw %struct.Plan, ptr %61, i32 0, i32 10
  %63 = load ptr, ptr %62, align 8
  %64 = call zeroext i1 @tlist_same_exprs(ptr noundef %60, ptr noundef %63)
  %65 = xor i1 %64, true
  %66 = zext i1 %65 to i8
  store i8 %66, ptr %10, align 1
  br label %67

67:                                               ; preds = %50, %40
  br label %68

68:                                               ; preds = %67, %34
  %69 = load i8, ptr %10, align 1, !range !4, !noundef !5
  %70 = trunc i8 %69 to i1
  br i1 %70, label %110, label %71

71:                                               ; preds = %68
  %72 = load ptr, ptr %8, align 8
  store ptr %72, ptr %7, align 8
  %73 = load ptr, ptr %9, align 8
  %74 = load ptr, ptr %7, align 8
  %75 = getelementptr inbounds nuw %struct.Plan, ptr %74, i32 0, i32 10
  store ptr %73, ptr %75, align 8
  %76 = load ptr, ptr %5, align 8
  %77 = getelementptr inbounds nuw %struct.ProjectionPath, ptr %76, i32 0, i32 0
  %78 = getelementptr inbounds nuw %struct.Path, ptr %77, i32 0, i32 10
  %79 = load double, ptr %78, align 8
  %80 = load ptr, ptr %7, align 8
  %81 = getelementptr inbounds nuw %struct.Plan, ptr %80, i32 0, i32 2
  store double %79, ptr %81, align 8
  %82 = load ptr, ptr %5, align 8
  %83 = getelementptr inbounds nuw %struct.ProjectionPath, ptr %82, i32 0, i32 0
  %84 = getelementptr inbounds nuw %struct.Path, ptr %83, i32 0, i32 11
  %85 = load double, ptr %84, align 8
  %86 = load ptr, ptr %7, align 8
  %87 = getelementptr inbounds nuw %struct.Plan, ptr %86, i32 0, i32 3
  store double %85, ptr %87, align 8
  %88 = load ptr, ptr %5, align 8
  %89 = getelementptr inbounds nuw %struct.ProjectionPath, ptr %88, i32 0, i32 0
  %90 = getelementptr inbounds nuw %struct.Path, ptr %89, i32 0, i32 8
  %91 = load double, ptr %90, align 8
  %92 = load ptr, ptr %7, align 8
  %93 = getelementptr inbounds nuw %struct.Plan, ptr %92, i32 0, i32 4
  store double %91, ptr %93, align 8
  %94 = load ptr, ptr %5, align 8
  %95 = getelementptr inbounds nuw %struct.ProjectionPath, ptr %94, i32 0, i32 0
  %96 = getelementptr inbounds nuw %struct.Path, ptr %95, i32 0, i32 3
  %97 = load ptr, ptr %96, align 8
  %98 = getelementptr inbounds nuw %struct.PathTarget, ptr %97, i32 0, i32 4
  %99 = load i32, ptr %98, align 8
  %100 = load ptr, ptr %7, align 8
  %101 = getelementptr inbounds nuw %struct.Plan, ptr %100, i32 0, i32 5
  store i32 %99, ptr %101, align 8
  %102 = load ptr, ptr %5, align 8
  %103 = getelementptr inbounds nuw %struct.ProjectionPath, ptr %102, i32 0, i32 0
  %104 = getelementptr inbounds nuw %struct.Path, ptr %103, i32 0, i32 6
  %105 = load i8, ptr %104, align 1, !range !4, !noundef !5
  %106 = trunc i8 %105 to i1
  %107 = load ptr, ptr %7, align 8
  %108 = getelementptr inbounds nuw %struct.Plan, ptr %107, i32 0, i32 7
  %109 = zext i1 %106 to i8
  store i8 %109, ptr %108, align 1
  br label %116

110:                                              ; preds = %68
  %111 = load ptr, ptr %9, align 8
  %112 = load ptr, ptr %8, align 8
  %113 = call ptr @make_result(ptr noundef %111, ptr noundef null, ptr noundef %112)
  store ptr %113, ptr %7, align 8
  %114 = load ptr, ptr %7, align 8
  %115 = load ptr, ptr %5, align 8
  call void @copy_generic_path_info(ptr noundef %114, ptr noundef %115)
  br label %116

116:                                              ; preds = %110, %71
  %117 = load ptr, ptr %7, align 8
  call void @llvm.lifetime.end.p0(i64 1, ptr %10) #10
  call void @llvm.lifetime.end.p0(i64 8, ptr %9) #10
  call void @llvm.lifetime.end.p0(i64 8, ptr %8) #10
  call void @llvm.lifetime.end.p0(i64 8, ptr %7) #10
  ret ptr %117
}