; Function Attrs: nounwind uwtable
define internal fastcc ptr @create_projection_plan(ptr noundef %0, ptr noundef readonly captures(none) %1, i32 noundef range(i32 0, 16) %2) unnamed_addr #0 {
  %4 = tail call fastcc zeroext i1 @use_physical_tlist(ptr noundef %0, ptr noundef %1, i32 noundef %2)
  %5 = getelementptr inbounds nuw i8, ptr %1, i64 80
  %6 = load ptr, ptr %5, align 8
  br i1 %4, label %7, label %15

7:                                                ; preds = %3
  %8 = tail call fastcc ptr @create_plan_recurse(ptr noundef %0, ptr noundef %6, i32 noundef 0)
  %9 = getelementptr inbounds nuw i8, ptr %8, i64 48
  %10 = load ptr, ptr %9, align 8
  %11 = and i32 %2, 4
  %.not = icmp eq i32 %11, 0
  br i1 %.not, label %.thread, label %12

12:                                               ; preds = %7
  %13 = getelementptr inbounds nuw i8, ptr %1, i64 16
  %14 = load ptr, ptr %13, align 8
  tail call void @apply_pathtarget_labeling_to_tlist(ptr noundef %10, ptr noundef %14) #12
  br label %.thread

15:                                               ; preds = %3
  %16 = getelementptr inbounds nuw i8, ptr %6, i64 4
  %17 = load i32, ptr %16, align 4
  switch i32 %17, label %is_projection_capable_path.exit.thread42 [
    i32 369, label %is_projection_capable_path.exit.thread
    i32 359, label %is_projection_capable_path.exit.thread
    i32 360, label %is_projection_capable_path.exit.thread
    i32 361, label %is_projection_capable_path.exit.thread
    i32 362, label %is_projection_capable_path.exit.thread
    i32 366, label %is_projection_capable_path.exit.thread
    i32 370, label %is_projection_capable_path.exit.thread
    i32 371, label %is_projection_capable_path.exit.thread
    i32 372, label %is_projection_capable_path.exit.thread
    i32 332, label %is_projection_capable_path.exit.thread
    i32 334, label %is_projection_capable_path.exit.thread
    i32 335, label %is_projection_capable_path.exit.thread
    i32 354, label %18
    i32 333, label %22
    i32 331, label %is_projection_capable_path.exit.thread
  ]

18:                                               ; preds = %15
  %19 = getelementptr inbounds nuw i8, ptr %6, i64 80
  %20 = load i32, ptr %19, align 8
  %21 = and i32 %20, 4
  %.not.i.not = icmp eq i32 %21, 0
  br i1 %.not.i.not, label %is_projection_capable_path.exit.thread, label %is_projection_capable_path.exit.thread42

22:                                               ; preds = %15
  %23 = load i32, ptr %6, align 4
  %24 = icmp eq i32 %23, 289
  br i1 %24, label %is_projection_capable_path.exit, label %is_projection_capable_path.exit.thread

is_projection_capable_path.exit:                  ; preds = %22
  %25 = getelementptr inbounds nuw i8, ptr %6, i64 80
  %26 = load ptr, ptr %25, align 8
  %27 = icmp eq ptr %26, null
  br i1 %27, label %is_projection_capable_path.exit.thread42, label %is_projection_capable_path.exit.thread

is_projection_capable_path.exit.thread42:         ; preds = %15, %18, %is_projection_capable_path.exit
  %28 = tail call fastcc ptr @create_plan_recurse(ptr noundef %0, ptr noundef nonnull %6, i32 noundef 8)
  %29 = tail call fastcc ptr @build_path_tlist(ptr noundef %0, ptr noundef nonnull %1)
  br label %.thread

is_projection_capable_path.exit.thread:           ; preds = %22, %15, %15, %15, %15, %15, %15, %15, %15, %15, %15, %15, %15, %15, %is_projection_capable_path.exit, %18
  %30 = tail call fastcc ptr @create_plan_recurse(ptr noundef %0, ptr noundef nonnull %6, i32 noundef 0)
  %31 = tail call fastcc ptr @build_path_tlist(ptr noundef %0, ptr noundef nonnull %1)
  %32 = getelementptr inbounds nuw i8, ptr %30, i64 48
  %33 = load ptr, ptr %32, align 8
  %34 = tail call zeroext i1 @tlist_same_exprs(ptr noundef %31, ptr noundef %33) #12
  br i1 %34, label %.thread, label %50

.thread:                                          ; preds = %is_projection_capable_path.exit.thread42, %7, %12, %is_projection_capable_path.exit.thread
  %.03848 = phi ptr [ %31, %is_projection_capable_path.exit.thread ], [ %29, %is_projection_capable_path.exit.thread42 ], [ %10, %7 ], [ %10, %12 ]
  %.03947 = phi ptr [ %30, %is_projection_capable_path.exit.thread ], [ %28, %is_projection_capable_path.exit.thread42 ], [ %8, %7 ], [ %8, %12 ]
  %35 = getelementptr inbounds nuw i8, ptr %.03947, i64 48
  store ptr %.03848, ptr %35, align 8
  %36 = getelementptr inbounds nuw i8, ptr %1, i64 56
  %37 = load double, ptr %36, align 8
  %38 = getelementptr inbounds nuw i8, ptr %.03947, i64 8
  store double %37, ptr %38, align 8
  %39 = getelementptr inbounds nuw i8, ptr %1, i64 64
  %40 = load double, ptr %39, align 8
  %41 = getelementptr inbounds nuw i8, ptr %.03947, i64 16
  store double %40, ptr %41, align 8
  %42 = getelementptr inbounds nuw i8, ptr %1, i64 40
  %43 = load double, ptr %42, align 8
  %44 = getelementptr inbounds nuw i8, ptr %.03947, i64 24
  store double %43, ptr %44, align 8
  %45 = getelementptr inbounds nuw i8, ptr %1, i64 16
  %46 = load ptr, ptr %45, align 8
  %47 = getelementptr inbounds nuw i8, ptr %46, i64 40
  %48 = load i32, ptr %47, align 8
  %49 = getelementptr inbounds nuw i8, ptr %.03947, i64 32
  store i32 %48, ptr %49, align 8
  br label %77

50:                                               ; preds = %is_projection_capable_path.exit.thread
  %51 = tail call noundef ptr @palloc0(i64 noundef 112) #12
  store i32 330, ptr %51, align 4
  %52 = getelementptr inbounds nuw i8, ptr %51, i64 48
  store ptr %31, ptr %52, align 8
  %53 = getelementptr inbounds nuw i8, ptr %51, i64 56
  store ptr null, ptr %53, align 8
  %54 = getelementptr inbounds nuw i8, ptr %51, i64 64
  store ptr %30, ptr %54, align 8
  %55 = getelementptr inbounds nuw i8, ptr %51, i64 72
  store ptr null, ptr %55, align 8
  %56 = getelementptr inbounds nuw i8, ptr %51, i64 104
  store ptr null, ptr %56, align 8
  %57 = getelementptr inbounds nuw i8, ptr %1, i64 48
  %58 = load i32, ptr %57, align 8
  %59 = getelementptr inbounds nuw i8, ptr %51, i64 4
  store i32 %58, ptr %59, align 4
  %60 = getelementptr inbounds nuw i8, ptr %1, i64 56
  %61 = load double, ptr %60, align 8
  %62 = getelementptr inbounds nuw i8, ptr %51, i64 8
  store double %61, ptr %62, align 8
  %63 = getelementptr inbounds nuw i8, ptr %1, i64 64
  %64 = load double, ptr %63, align 8
  %65 = getelementptr inbounds nuw i8, ptr %51, i64 16
  store double %64, ptr %65, align 8
  %66 = getelementptr inbounds nuw i8, ptr %1, i64 40
  %67 = load double, ptr %66, align 8
  %68 = getelementptr inbounds nuw i8, ptr %51, i64 24
  store double %67, ptr %68, align 8
  %69 = getelementptr inbounds nuw i8, ptr %1, i64 16
  %70 = load ptr, ptr %69, align 8
  %71 = getelementptr inbounds nuw i8, ptr %70, i64 40
  %72 = load i32, ptr %71, align 8
  %73 = getelementptr inbounds nuw i8, ptr %51, i64 32
  store i32 %72, ptr %73, align 8
  %74 = getelementptr inbounds nuw i8, ptr %1, i64 32
  %75 = load i8, ptr %74, align 8, !range !4, !noundef !5
  %76 = getelementptr inbounds nuw i8, ptr %51, i64 36
  store i8 %75, ptr %76, align 4
  br label %77

77:                                               ; preds = %50, %.thread
  %.sink50 = phi ptr [ %51, %50 ], [ %.03947, %.thread ]
  %78 = getelementptr inbounds nuw i8, ptr %1, i64 33
  %79 = load i8, ptr %78, align 1, !range !4, !noundef !5
  %80 = getelementptr inbounds nuw i8, ptr %.sink50, i64 37
  store i8 %79, ptr %80, align 1
  ret ptr %.sink50
}